Certificate:
    Data:
        Version: 3 (0x2)
        Serial Number:
            a5:6b:09:cb:8f:41:3b:8b
        Signature Algorithm: sha1WithRSAEncryption
        Issuer: C=AU, ST=Some-State, O=Internet Widgits Pty Ltd
        Validity
            Not Before: Sep  4 13:35:59 2016 GMT
            Not After : Oct  4 13:35:59 2016 GMT
        Subject: C=AU, ST=Some-State, O=Internet Widgits Pty Ltd
        Subject Public Key Info:
            Public Key Algorithm: rsaEncryption
            RSA Public Key: (4096 bit)
                Modulus (4096 bit):
                    00:d2:c9:17:ef:74:b2:1f:a1:1c:21:2e:2a:2e:7c:
                    be:87:e9:4c:81:24:f0:ce:e9:8f:25:1e:0e:21:b4:
                    fc:1e:aa:08:6f:46:a2:75:d5:01:59:ca:59:49:17:
                    b2:9c:57:2d:62:83:02:be:a2:0b:d7:f0:4a:5e:2f:
                    ec:3b:6f:50:54:4e:c0:d8:21:17:ce:f3:bd:05:a4:
                    27:e6:26:44:2c:fb:8b:b2:5a:1b:30:9e:35:fc:96:
                    ef:0f:61:0c:8a:e8:ec:c4:42:63:35:89:11:47:be:
                    22:21:fc:bd:58:25:e1:be:ba:2d:d5:e6:93:01:2a:
                    81:22:0c:51:8b:fc:e7:3f:a7:33:b3:aa:45:9e:8d:
                    85:dd:0e:71:b0:c8:6f:26:7a:24:da:cd:dd:40:fc:
                    9d:e1:ae:5f:dd:ee:99:0a:17:78:d5:27:bd:62:f3:
                    4c:6e:e9:ad:42:21:78:d4:11:f0:fd:d3:f0:b6:35:
                    9a:6e:37:45:b5:77:8f:a6:83:d0:db:de:53:6d:19:
                    46:c4:5a:fc:ce:de:93:21:3e:e0:2d:be:10:e6:e4:
                    79:fc:9a:70:26:ab:d4:f3:9c:3b:30:3e:4a:27:68:
                    a4:53:e5:4c:49:70:df:f7:0e:cc:0f:47:56:dd:8f:
                    d2:85:10:99:e3:31:fb:9d:e6:23:3b:86:2d:bf:2f:
                    29:b2:7a:64:e4:ae:c4:84:37:44:e3:fa:b7:b0:b4:
                    4d:60:9b:d2:17:8c:2d:70:a7:eb:9f:21:f3:53:ef:
                    25:3c:c9:93:1e:5f:fa:47:cd:a9:15:20:46:7e:75:
                    13:5e:56:52:ef:75:49:fb:8a:c6:f0:63:39:28:c2:
                    e2:9f:3f:4b:92:c5:fe:ad:22:40:d4:e3:b0:f6:cc:
                    26:f1:04:48:ea:b4:63:32:42:01:6c:7d:c5:75:c3:
                    2e:9e:d6:d3:7c:28:58:d6:76:c0:ae:08:9e:9c:24:
                    dd:54:5f:1d:fb:cf:6a:b1:6b:2d:e6:e6:f1:80:17:
                    a9:dd:11:ff:f7:ad:af:0d:57:5e:e8:90:5e:ad:85:
                    c5:37:06:81:af:66:b5:49:52:a2:f2:d0:3b:e7:22:
                    f4:c9:83:2e:27:47:69:49:91:21:53:66:46:37:f7:
                    5d:d6:7d:29:ee:2e:1b:84:96:34:84:0d:7c:38:1e:
                    b7:2f:c7:a4:24:80:9d:72:18:68:27:60:a9:de:e7:
                    a8:3e:d8:3b:85:dc:18:5e:25:dd:61:a1:2f:84:01:
                    b6:ac:70:60:db:a5:59:38:c5:b1:d3:ef:07:f5:24:
                    66:a3:f0:0e:65:ae:fb:7e:90:39:19:42:e3:d0:ac:
                    87:27:f7:53:ba:c3:4c:97:52:0d:60:2f:20:df:79:
                    a8:63:2d
                Exponent: 65537 (0x10001)
        X509v3 extensions:
            X509v3 Subject Key Identifier: 
                41:E4:23:FB:5C:9F:F0:65:08:0B:D3:E3:87:58:7B:42:11:6B:42:EA
            X509v3 Authority Key Identifier: 
                keyid:41:E4:23:FB:5C:9F:F0:65:08:0B:D3:E3:87:58:7B:42:11:6B:42:EA
                DirName:/C=AU/ST=Some-State/O=Internet Widgits Pty Ltd
                serial:A5:6B:09:CB:8F:41:3B:8B

            X509v3 Basic Constraints: 
                CA:TRUE
    Signature Algorithm: sha1WithRSAEncryption
        ba:30:9c:6a:09:44:5c:08:95:59:7d:61:3b:c7:62:54:19:e9:
        db:9d:83:e4:3f:9c:ce:db:ff:d6:4a:03:f2:06:6c:57:f5:bb:
        70:31:63:58:23:3c:03:57:75:d7:16:76:f9:50:e8:bf:ae:35:
        b9:37:cc:da:ca:5c:00:85:c4:8f:14:2a:c2:68:45:a4:75:23:
        4a:e8:5f:74:ea:91:e2:0e:99:7a:4e:80:25:e9:f3:e3:7a:92:
        b3:07:58:9c:5b:06:b5:c5:e0:5b:fd:75:33:5d:2e:62:38:80:
        a7:8f:73:eb:68:5b:46:57:45:47:f1:0e:3a:aa:89:0a:ac:7f:
        9d:7e:21:b1:66:2f:4d:0c:5d:b0:51:5a:ab:ff:bc:53:45:fb:
        62:25:03:5b:9a:02:55:b0:2b:b3:f3:77:0e:0a:d7:43:52:7b:
        81:ba:dd:17:02:86:af:29:8e:85:de:03:11:dd:a4:73:54:45:
        f6:b3:3e:ad:df:08:b7:04:3a:e1:80:0f:26:29:ba:7c:ec:8e:
        31:aa:44:e9:e4:43:0b:88:ce:9b:6f:3a:cc:1f:f2:d6:57:99:
        57:6a:1d:ef:80:d7:de:38:6a:19:82:fc:e3:28:bb:39:ad:6e:
        2b:44:3e:15:53:94:5a:d1:42:97:1d:1d:fa:0b:7c:27:c4:39:
        1f:22:88:68:3e:9e:64:b6:68:56:40:6e:ab:54:55:dd:bb:a6:
        28:89:41:a1:8e:d0:a4:ef:f5:26:9b:4f:8c:39:01:fe:3d:5f:
        54:d6:a7:86:0f:14:9b:e5:35:51:ef:26:3c:b8:99:bb:34:9a:
        39:35:02:5c:b9:f1:65:66:a6:16:42:60:b7:fd:3c:1f:d4:74:
        3e:01:a0:8b:65:35:cb:5b:cc:db:8b:8e:ae:2f:de:3b:41:f5:
        54:b6:ea:07:d3:f9:d1:6f:89:fd:9c:61:de:31:6e:05:b1:97:
        71:95:d6:5f:03:00:ae:00:31:9f:ea:4f:f2:d2:30:5d:b4:2d:
        f1:d4:5a:b1:59:37:df:77:f3:55:6d:23:44:58:24:3e:b5:05:
        97:d3:a3:df:55:4e:74:e9:34:c8:b2:f2:21:a0:d5:25:ed:32:
        c6:5d:e6:02:02:75:c2:dd:c0:0d:07:52:2d:54:d2:9f:a0:81:
        31:63:f4:fa:c6:f7:ca:0a:3a:cc:5a:14:a5:22:65:0f:09:3c:
        35:f6:ec:e5:5c:e8:96:b3:c9:78:7c:a8:cf:66:05:ac:2d:a9:
        ea:fb:24:ea:8f:f4:31:78:20:5d:c7:88:d8:38:d1:3e:d9:b2:
        fb:ec:a3:1a:82:3c:f0:45:d9:7d:f0:13:dd:fb:29:87:62:2c:
        ea:58:c2:e6:ad:97:ec:1b
-----BEGIN CERTIFICATE-----
MIIFtTCCA52gAwIBAgIJAKVrCcuPQTuLMA0GCSqGSIb3DQEBBQUAMEUxCzAJBgNV
BAYTAkFVMRMwEQYDVQQIEwpTb21lLVN0YXRlMSEwHwYDVQQKExhJbnRlcm5ldCBX
aWRnaXRzIFB0eSBMdGQwHhcNMTYwOTA0MTMzNTU5WhcNMTYxMDA0MTMzNTU5WjBF
MQswCQYDVQQGEwJBVTETMBEGA1UECBMKU29tZS1TdGF0ZTEhMB8GA1UEChMYSW50
ZXJuZXQgV2lkZ2l0cyBQdHkgTHRkMIICIjANBgkqhkiG9w0BAQEFAAOCAg8AMIIC
CgKCAgEA0skX73SyH6EcIS4qLny+h+lMgSTwzumPJR4OIbT8HqoIb0aiddUBWcpZ
SReynFctYoMCvqIL1/BKXi/sO29QVE7A2CEXzvO9BaQn5iZELPuLslobMJ41/Jbv
D2EMiujsxEJjNYkRR74iIfy9WCXhvrot1eaTASqBIgxRi/znP6czs6pFno2F3Q5x
sMhvJnok2s3dQPyd4a5f3e6ZChd41Se9YvNMbumtQiF41BHw/dPwtjWabjdFtXeP
poPQ295TbRlGxFr8zt6TIT7gLb4Q5uR5/JpwJqvU85w7MD5KJ2ikU+VMSXDf9w7M
D0dW3Y/ShRCZ4zH7neYjO4Ytvy8psnpk5K7EhDdE4/q3sLRNYJvSF4wtcKfrnyHz
U+8lPMmTHl/6R82pFSBGfnUTXlZS73VJ+4rG8GM5KMLinz9LksX+rSJA1OOw9swm
8QRI6rRjMkIBbH3FdcMuntbTfChY1nbArgienCTdVF8d+89qsWst5ubxgBep3RH/
962vDVde6JBerYXFNwaBr2a1SVKi8tA75yL0yYMuJ0dpSZEhU2ZGN/dd1n0p7i4b
hJY0hA18OB63L8ekJICdchhoJ2Cp3ueoPtg7hdwYXiXdYaEvhAG2rHBg26VZOMWx
0+8H9SRmo/AOZa77fpA5GULj0KyHJ/dTusNMl1INYC8g33moYy0CAwEAAaOBpzCB
pDAdBgNVHQ4EFgQUQeQj+1yf8GUIC9Pjh1h7QhFrQuowdQYDVR0jBG4wbIAUQeQj
+1yf8GUIC9Pjh1h7QhFrQuqhSaRHMEUxCzAJBgNVBAYTAkFVMRMwEQYDVQQIEwpT
b21lLVN0YXRlMSEwHwYDVQQKExhJbnRlcm5ldCBXaWRnaXRzIFB0eSBMdGSCCQCl
awnLj0E7izAMBgNVHRMEBTADAQH/MA0GCSqGSIb3DQEBBQUAA4ICAQC6MJxqCURc
CJVZfWE7x2JUGenbnYPkP5zO2//WSgPyBmxX9btwMWNYIzwDV3XXFnb5UOi/rjW5
N8zaylwAhcSPFCrCaEWkdSNK6F906pHiDpl6ToAl6fPjepKzB1icWwa1xeBb/XUz
XS5iOICnj3PraFtGV0VH8Q46qokKrH+dfiGxZi9NDF2wUVqr/7xTRftiJQNbmgJV
sCuz83cOCtdDUnuBut0XAoavKY6F3gMR3aRzVEX2sz6t3wi3BDrhgA8mKbp87I4x
qkTp5EMLiM6bbzrMH/LWV5lXah3vgNfeOGoZgvzjKLs5rW4rRD4VU5Ra0UKXHR36
C3wnxDkfIohoPp5ktmhWQG6rVFXdu6YoiUGhjtCk7/Umm0+MOQH+PV9U1qeGDxSb
5TVR7yY8uJm7NJo5NQJcufFlZqYWQmC3/Twf1HQ+AaCLZTXLW8zbi46uL947QfVU
tuoH0/nRb4n9nGHeMW4FsZdxldZfAwCuADGf6k/y0jBdtC3x1FqxWTffd/NVbSNE
WCQ+tQWX06PfVU506TTIsvIhoNUl7TLGXeYCAnXC3cANB1ItVNKfoIExY/T6xvfK
CjrMWhSlImUPCTw19uzlXOiWs8l4fKjPZgWsLanq+yTqj/QxeCBdx4jYONE+2bL7
7KMagjzwRdl98BPd+ymHYizqWMLmrZfsGw==
-----END CERTIFICATE-----
