Certificate:
    Data:
        Version: 3 (0x2)
        Serial Number:
            b4:5d:45:e6:5c:d2:cc:cf
        Signature Algorithm: sha1WithRSAEncryption
        Issuer: C=AU, ST=Some-State, O=Internet Widgits Pty Ltd
        Validity
            Not Before: Sep 21 14:20:13 2016 GMT
            Not After : Oct 21 14:20:13 2016 GMT
        Subject: C=AU, ST=Some-State, O=Internet Widgits Pty Ltd
        Subject Public Key Info:
            Public Key Algorithm: rsaEncryption
            RSA Public Key: (4096 bit)
                Modulus (4096 bit):
                    00:fb:13:46:2f:3e:5a:f0:ca:8a:4d:65:56:48:df:
                    dc:aa:7a:6e:60:05:39:66:1b:c1:4b:67:31:6f:a1:
                    5b:44:83:09:13:5d:8e:44:21:3c:aa:49:dc:4b:29:
                    df:42:2b:3d:86:ee:b5:77:8d:60:f5:05:25:b1:a9:
                    96:d8:03:d2:36:1d:18:3b:18:e6:bc:ac:83:2f:3d:
                    60:14:00:3c:b3:7c:6d:32:65:71:4d:a6:1f:e5:b6:
                    1d:19:33:66:c2:d8:41:14:bd:21:0a:29:af:38:dd:
                    d7:2d:9e:ba:8c:e1:63:76:a5:e4:12:6d:8c:a6:54:
                    2b:28:8c:63:53:22:8c:19:c1:89:e6:1b:77:d2:de:
                    13:fe:e4:08:ad:b5:86:64:09:d4:6c:02:b1:e2:c1:
                    8f:21:fd:7e:51:23:38:f2:db:f5:e9:a0:69:f9:bc:
                    2d:4b:5c:5c:69:94:8b:0a:18:c4:79:40:ef:b7:c4:
                    2d:6f:f5:c7:0c:e7:c8:02:05:8b:80:5d:2a:c8:09:
                    ed:64:f7:d7:e0:1d:70:07:70:c5:37:2f:50:5c:61:
                    ee:2e:79:20:84:55:95:c1:64:18:af:f7:44:47:47:
                    4f:b5:9d:58:73:70:7f:06:af:d2:3d:95:cd:37:88:
                    d9:d9:e5:d7:82:f8:07:a0:04:1e:22:03:ce:e1:4f:
                    ec:ef:a4:b7:cc:22:4b:70:50:17:87:51:7f:0a:29:
                    d9:7b:24:2f:d1:2a:1f:7b:5a:dd:2d:24:cc:38:b6:
                    bd:cc:29:7c:1a:43:fb:52:60:e2:35:5c:e5:c6:07:
                    b1:aa:5a:5e:60:84:75:c1:9e:67:26:72:9b:1f:cf:
                    b0:b8:7c:05:44:3d:63:a9:6e:41:90:cc:9a:11:29:
                    db:eb:18:77:45:cf:1a:aa:45:e3:61:ca:74:7e:5e:
                    34:f4:2f:4a:a1:77:b1:f3:0f:36:fb:8c:8f:51:c8:
                    6e:ee:f3:a8:e2:0c:9b:cb:63:9d:25:dc:a8:d7:cd:
                    b3:71:d4:92:5b:27:0f:e5:95:76:97:99:67:d7:8d:
                    3f:d6:8d:cc:71:8a:e3:29:a1:16:3e:c8:7f:57:34:
                    e5:25:03:4a:54:95:c3:21:72:bd:2c:90:79:fd:bf:
                    1a:2e:5d:61:f2:1d:62:bb:de:f7:d5:8d:78:5e:cd:
                    3f:9f:b2:05:6d:22:3d:e0:5d:80:62:d3:f7:3d:6c:
                    a9:4f:bb:9e:bc:0b:49:26:68:e5:6a:3c:a6:e9:78:
                    fb:f9:6c:7b:46:39:7d:1c:c7:4d:c5:e8:a4:a8:f4:
                    e2:99:e9:1a:39:ad:34:9d:ad:6f:c0:9e:83:71:6f:
                    fe:02:18:52:cd:e8:28:14:93:a5:08:94:78:a6:a6:
                    15:a5:d1
                Exponent: 65537 (0x10001)
        X509v3 extensions:
            X509v3 Subject Key Identifier: 
                D4:3A:92:C4:85:82:8B:E9:12:B4:78:A2:C6:32:19:8C:01:87:A3:1C
            X509v3 Authority Key Identifier: 
                keyid:D4:3A:92:C4:85:82:8B:E9:12:B4:78:A2:C6:32:19:8C:01:87:A3:1C
                DirName:/C=AU/ST=Some-State/O=Internet Widgits Pty Ltd
                serial:B4:5D:45:E6:5C:D2:CC:CF

            X509v3 Basic Constraints: 
                CA:TRUE
    Signature Algorithm: sha1WithRSAEncryption
        79:9f:4f:1c:7d:63:4f:58:e8:a4:b7:ef:03:9c:9c:1d:e9:a6:
        fa:9d:66:7a:17:79:79:94:9b:e1:6e:fd:81:17:1c:29:09:e0:
        f1:62:f8:9e:02:a4:a2:ae:e8:c7:6e:42:98:ca:65:86:65:86:
        7e:54:bd:83:b6:0d:a4:28:ce:85:15:23:17:51:3c:d4:68:32:
        7b:f1:69:b4:88:c7:f8:37:95:7e:f5:03:62:33:aa:f5:7c:89:
        16:79:9f:a5:9f:df:af:7b:ef:e6:fb:3b:11:21:15:d5:82:a6:
        f9:f1:09:cb:a1:99:57:f7:0e:e0:dc:26:55:e9:aa:70:05:18:
        b6:cb:0d:31:31:33:93:f2:fc:5b:fc:62:57:32:71:16:e3:27:
        df:94:28:8e:4f:d9:ec:ee:e8:3d:fc:fb:29:b7:d0:f3:e2:ab:
        32:c4:00:50:e9:80:14:23:ff:e1:85:f7:c2:51:74:0b:d0:07:
        6d:3e:cd:d6:6a:96:41:c9:f5:7a:08:e1:f3:e6:e8:86:a0:1c:
        b8:1b:cd:bd:1d:3b:a1:f1:ac:5b:7e:d1:41:c5:8b:9b:1c:61:
        cb:7d:e7:9c:35:ee:e2:f5:1e:63:a4:36:a1:e5:df:b5:d8:5f:
        de:10:a3:ce:01:bb:87:e8:29:a5:2f:f0:3f:fc:71:d9:ca:75:
        63:ca:27:92:17:de:82:b0:28:f4:43:e3:c9:de:49:b2:e9:1a:
        d5:e4:6c:06:d3:65:54:32:83:cc:06:70:82:cc:e7:d8:09:b4:
        39:e6:0a:31:2d:ff:77:dc:7a:0c:8f:aa:15:1d:6e:ec:04:93:
        81:21:d6:9f:e8:48:3b:52:44:88:50:e0:f8:11:e8:5a:dc:1d:
        17:63:c6:ea:85:3e:da:63:b7:78:27:6d:7d:5f:9d:e6:26:2e:
        27:7c:5d:0c:c1:95:23:58:6e:08:2f:18:cf:25:bb:0b:eb:23:
        3b:37:a1:50:cd:29:fb:66:09:44:1a:f2:f5:2c:8f:19:dc:4d:
        cf:cc:ef:8c:23:53:75:e1:95:e9:26:ec:fe:81:1a:bc:ee:dc:
        ba:af:12:82:d1:d9:08:43:25:75:21:c5:23:a2:51:2c:a0:57:
        e5:60:8c:93:ff:3e:7e:17:f0:28:75:72:81:c6:5c:58:26:1e:
        97:7f:88:b3:8b:1e:c5:3c:3c:a6:f8:88:5f:cf:bd:6a:93:a1:
        9a:06:b9:6d:ea:65:99:ff:41:4e:3e:e6:02:1f:39:89:24:8f:
        b3:bb:60:32:36:1c:d2:a5:c8:9d:d6:02:c4:f9:aa:35:47:85:
        0a:fd:8f:70:27:3f:91:ed:68:15:59:c9:a0:3a:fa:22:c7:86:
        01:60:4b:a9:98:50:0c:8e
-----BEGIN CERTIFICATE-----
MIIFtTCCA52gAwIBAgIJALRdReZc0szPMA0GCSqGSIb3DQEBBQUAMEUxCzAJBgNV
BAYTAkFVMRMwEQYDVQQIEwpTb21lLVN0YXRlMSEwHwYDVQQKExhJbnRlcm5ldCBX
aWRnaXRzIFB0eSBMdGQwHhcNMTYwOTIxMTQyMDEzWhcNMTYxMDIxMTQyMDEzWjBF
MQswCQYDVQQGEwJBVTETMBEGA1UECBMKU29tZS1TdGF0ZTEhMB8GA1UEChMYSW50
ZXJuZXQgV2lkZ2l0cyBQdHkgTHRkMIICIjANBgkqhkiG9w0BAQEFAAOCAg8AMIIC
CgKCAgEA+xNGLz5a8MqKTWVWSN/cqnpuYAU5ZhvBS2cxb6FbRIMJE12ORCE8qknc
SynfQis9hu61d41g9QUlsamW2APSNh0YOxjmvKyDLz1gFAA8s3xtMmVxTaYf5bYd
GTNmwthBFL0hCimvON3XLZ66jOFjdqXkEm2MplQrKIxjUyKMGcGJ5ht30t4T/uQI
rbWGZAnUbAKx4sGPIf1+USM48tv16aBp+bwtS1xcaZSLChjEeUDvt8Qtb/XHDOfI
AgWLgF0qyAntZPfX4B1wB3DFNy9QXGHuLnkghFWVwWQYr/dER0dPtZ1Yc3B/Bq/S
PZXNN4jZ2eXXgvgHoAQeIgPO4U/s76S3zCJLcFAXh1F/CinZeyQv0Sofe1rdLSTM
OLa9zCl8GkP7UmDiNVzlxgexqlpeYIR1wZ5nJnKbH8+wuHwFRD1jqW5BkMyaESnb
6xh3Rc8aqkXjYcp0fl409C9KoXex8w82+4yPUchu7vOo4gyby2OdJdyo182zcdSS
WycP5ZV2l5ln140/1o3McYrjKaEWPsh/VzTlJQNKVJXDIXK9LJB5/b8aLl1h8h1i
u9731Y14Xs0/n7IFbSI94F2AYtP3PWypT7uevAtJJmjlajym6Xj7+Wx7Rjl9HMdN
xeikqPTimekaOa00na1vwJ6DcW/+AhhSzegoFJOlCJR4pqYVpdECAwEAAaOBpzCB
pDAdBgNVHQ4EFgQU1DqSxIWCi+kStHiixjIZjAGHoxwwdQYDVR0jBG4wbIAU1DqS
xIWCi+kStHiixjIZjAGHoxyhSaRHMEUxCzAJBgNVBAYTAkFVMRMwEQYDVQQIEwpT
b21lLVN0YXRlMSEwHwYDVQQKExhJbnRlcm5ldCBXaWRnaXRzIFB0eSBMdGSCCQC0
XUXmXNLMzzAMBgNVHRMEBTADAQH/MA0GCSqGSIb3DQEBBQUAA4ICAQB5n08cfWNP
WOikt+8DnJwd6ab6nWZ6F3l5lJvhbv2BFxwpCeDxYvieAqSirujHbkKYymWGZYZ+
VL2Dtg2kKM6FFSMXUTzUaDJ78Wm0iMf4N5V+9QNiM6r1fIkWeZ+ln9+ve+/m+zsR
IRXVgqb58QnLoZlX9w7g3CZV6apwBRi2yw0xMTOT8vxb/GJXMnEW4yfflCiOT9ns
7ug9/Pspt9Dz4qsyxABQ6YAUI//hhffCUXQL0AdtPs3WapZByfV6COHz5uiGoBy4
G829HTuh8axbftFBxYubHGHLfeecNe7i9R5jpDah5d+12F/eEKPOAbuH6CmlL/A/
/HHZynVjyieSF96CsCj0Q+PJ3kmy6RrV5GwG02VUMoPMBnCCzOfYCbQ55goxLf93
3HoMj6oVHW7sBJOBIdaf6Eg7UkSIUOD4Eeha3B0XY8bqhT7aY7d4J219X53mJi4n
fF0MwZUjWG4ILxjPJbsL6yM7N6FQzSn7ZglEGvL1LI8Z3E3PzO+MI1N14ZXpJuz+
gRq87ty6rxKC0dkIQyV1IcUjolEsoFflYIyT/z5+F/AodXKBxlxYJh6Xf4izix7F
PDym+Ihfz71qk6GaBrlt6mWZ/0FOPuYCHzmJJI+zu2AyNhzSpcid1gLE+ao1R4UK
/Y9wJz+R7WgVWcmgOvoix4YBYEupmFAMjg==
-----END CERTIFICATE-----
