Certificate:
    Data:
        Version: 3 (0x2)
        Serial Number:
            d9:90:ac:dc:34:39:9c:21
        Signature Algorithm: sha1WithRSAEncryption
        Issuer: C=AU, ST=Some-State, O=Internet Widgits Pty Ltd
        Validity
            Not Before: Sep  4 15:13:58 2016 GMT
            Not After : Oct  4 15:13:58 2016 GMT
        Subject: C=AU, ST=Some-State, O=Internet Widgits Pty Ltd
        Subject Public Key Info:
            Public Key Algorithm: rsaEncryption
            RSA Public Key: (4096 bit)
                Modulus (4096 bit):
                    00:d3:18:36:f9:c9:48:fe:d0:4f:34:64:18:3c:24:
                    8a:5a:dd:d7:67:39:5a:8a:51:50:0b:1d:16:e0:82:
                    af:d1:28:4b:35:23:3f:c7:1e:2d:9b:a9:50:0b:8a:
                    5b:67:55:0d:0a:cd:b4:28:3f:54:f2:81:5a:e4:7a:
                    62:63:66:2d:74:41:49:1a:e4:f8:66:dd:aa:73:31:
                    c9:47:89:0c:1d:89:85:83:1e:9a:6c:7e:b4:7e:36:
                    93:9b:5c:dc:58:e8:eb:6f:a2:40:8f:3b:67:5e:66:
                    eb:df:b2:8e:4a:c5:95:9a:c5:39:98:20:0c:a2:12:
                    79:52:04:fd:77:a6:21:0f:5b:84:56:27:d5:34:d2:
                    a5:11:0b:03:68:d0:db:a3:4e:a7:0f:6e:df:cf:5b:
                    60:b0:8b:a2:ae:fb:39:bb:3f:c6:7d:8f:99:18:28:
                    11:fe:b0:9e:41:73:88:ba:4a:44:b4:77:5a:f8:22:
                    50:16:90:15:4e:71:a6:8b:d3:12:8e:2f:cd:e7:66:
                    f0:25:67:35:70:58:ee:a3:f2:d0:fb:c8:e2:6c:bc:
                    18:78:e5:cf:4f:1c:e0:95:b2:69:fd:8f:1b:5f:dc:
                    e7:7f:f7:62:ac:27:2b:94:8d:0a:1a:00:5c:67:d3:
                    3d:2b:45:be:09:ac:10:21:1c:1d:b2:a2:83:6a:b3:
                    d1:ca:b1:8e:14:8d:5f:9b:13:fa:86:eb:65:fd:a7:
                    2d:9c:6d:d6:1e:7f:38:56:ae:d8:3b:02:0b:5a:01:
                    3e:fa:4a:44:65:c3:1c:5d:a8:20:05:76:97:9d:fc:
                    80:07:eb:3e:25:f4:42:a8:c0:73:a5:3a:5a:19:3e:
                    b8:d6:29:ae:2c:c2:ea:f7:41:9a:0a:a6:a3:42:c9:
                    5e:da:9e:8d:4c:f4:f1:bd:ee:d7:9c:fa:be:8d:82:
                    07:cd:e1:44:f4:c9:3f:f9:69:78:aa:54:b1:f3:9f:
                    c2:a5:3f:43:7e:ea:25:25:a1:53:78:e6:2a:cf:b1:
                    e0:68:f5:65:ab:ab:71:8e:32:19:24:f4:48:12:a8:
                    8e:b1:47:a1:b4:b0:0c:44:57:32:f0:85:79:47:13:
                    c9:fa:b1:09:e8:cb:4b:c9:95:b6:67:59:3f:d8:44:
                    be:fa:76:55:59:62:4c:46:ec:14:9f:86:5c:5c:99:
                    91:4a:0e:26:6c:25:c1:25:50:f9:52:57:a7:c6:97:
                    c2:eb:e1:d9:2d:1e:22:3c:b7:d6:8d:c6:09:b5:d2:
                    72:fa:9d:f9:70:26:70:22:f6:9b:67:19:60:4b:4e:
                    d1:94:0f:8a:8c:38:3a:96:a0:e1:43:db:c8:48:10:
                    51:a6:66:e5:77:e6:dd:80:2a:81:f3:b4:ed:90:e0:
                    fd:fc:1f
                Exponent: 65537 (0x10001)
        X509v3 extensions:
            X509v3 Subject Key Identifier: 
                EF:61:0D:76:9B:BA:E8:A6:B9:86:A5:9D:56:23:15:DB:9C:D7:69:89
            X509v3 Authority Key Identifier: 
                keyid:EF:61:0D:76:9B:BA:E8:A6:B9:86:A5:9D:56:23:15:DB:9C:D7:69:89
                DirName:/C=AU/ST=Some-State/O=Internet Widgits Pty Ltd
                serial:D9:90:AC:DC:34:39:9C:21

            X509v3 Basic Constraints: 
                CA:TRUE
    Signature Algorithm: sha1WithRSAEncryption
        37:77:95:cf:8f:23:5f:c9:9a:52:e9:8c:31:ac:90:fa:1c:cb:
        6f:0f:40:31:ca:96:77:d5:83:80:b0:7d:0a:21:7e:98:fe:49:
        4a:3c:35:5f:0f:d3:da:7c:ff:aa:38:4c:b5:60:2c:59:62:e5:
        b6:9a:aa:91:bc:b4:4a:99:e6:f8:ba:4f:e7:61:9b:0f:bc:f4:
        f3:82:85:d9:8d:a7:59:31:62:0e:70:62:7b:05:81:11:de:21:
        1c:63:18:ab:d9:08:ea:aa:da:e4:52:3c:e8:64:79:0d:3c:06:
        3d:a2:d4:e0:73:8f:56:69:06:39:c4:e0:54:eb:34:9c:36:3d:
        ab:1d:8f:64:87:39:da:25:31:77:41:f6:51:fb:0a:2c:94:c3:
        fe:90:28:76:1b:36:e6:4e:40:c4:81:16:35:9f:f7:4c:c3:67:
        a1:eb:96:96:70:7f:3b:3b:29:0b:f2:46:75:25:4e:22:47:f5:
        eb:71:ac:0a:44:b3:40:c3:10:b6:97:92:90:4d:31:c8:dd:89:
        b3:90:96:42:9a:70:27:88:54:de:25:39:13:bc:46:92:40:86:
        76:c2:b9:63:72:71:b9:59:77:0d:ec:6f:37:cc:6e:a1:39:f8:
        91:56:c9:33:01:02:d8:6f:33:ab:eb:79:4c:d2:bf:2b:48:3b:
        fe:cd:38:bd:95:3e:46:aa:63:4c:2c:e4:a8:40:0e:02:14:dc:
        1f:f7:1e:d4:a2:73:7e:d5:17:17:cf:10:60:74:f0:b1:7c:e8:
        55:ca:fb:e7:b6:fa:d3:e9:d7:20:29:a9:1d:99:e1:90:12:fe:
        6c:5e:a0:38:99:33:ea:8a:ef:aa:59:5e:c7:c7:c5:76:c9:e7:
        e6:9d:88:78:58:57:05:ff:f5:f9:a0:cc:35:fe:c4:6a:29:bf:
        35:b4:da:93:97:0a:c1:56:3f:14:63:67:8f:47:44:04:6a:15:
        38:37:e1:56:11:70:b6:f8:6d:ca:0a:7f:60:1a:07:94:d7:c9:
        cc:2f:e1:08:4b:b5:63:b5:12:5f:74:95:88:b8:06:9e:c6:f3:
        2f:6b:6f:62:86:45:d9:ea:b0:c4:80:02:cc:dc:bc:65:af:35:
        37:d0:68:df:b2:44:c2:35:9f:77:e0:19:2f:b5:6a:da:c4:c3:
        a9:f0:f2:0b:cb:1f:85:20:fd:f3:b2:28:0d:13:f1:41:76:81:
        b8:c2:f8:c5:33:cc:d7:e6:0f:7c:7a:b7:93:e9:3d:4b:bd:ee:
        8d:81:d2:bf:d9:99:bc:a2:30:3c:7f:0f:29:f0:c7:ea:e6:38:
        8a:78:b8:0d:32:cf:c5:a5:d8:0b:9d:58:79:a1:38:79:66:26:
        70:28:e0:27:3d:41:91:60
-----BEGIN CERTIFICATE-----
MIIFtTCCA52gAwIBAgIJANmQrNw0OZwhMA0GCSqGSIb3DQEBBQUAMEUxCzAJBgNV
BAYTAkFVMRMwEQYDVQQIEwpTb21lLVN0YXRlMSEwHwYDVQQKExhJbnRlcm5ldCBX
aWRnaXRzIFB0eSBMdGQwHhcNMTYwOTA0MTUxMzU4WhcNMTYxMDA0MTUxMzU4WjBF
MQswCQYDVQQGEwJBVTETMBEGA1UECBMKU29tZS1TdGF0ZTEhMB8GA1UEChMYSW50
ZXJuZXQgV2lkZ2l0cyBQdHkgTHRkMIICIjANBgkqhkiG9w0BAQEFAAOCAg8AMIIC
CgKCAgEA0xg2+clI/tBPNGQYPCSKWt3XZzlailFQCx0W4IKv0ShLNSM/xx4tm6lQ
C4pbZ1UNCs20KD9U8oFa5HpiY2YtdEFJGuT4Zt2qczHJR4kMHYmFgx6abH60fjaT
m1zcWOjrb6JAjztnXmbr37KOSsWVmsU5mCAMohJ5UgT9d6YhD1uEVifVNNKlEQsD
aNDbo06nD27fz1tgsIuirvs5uz/GfY+ZGCgR/rCeQXOIukpEtHda+CJQFpAVTnGm
i9MSji/N52bwJWc1cFjuo/LQ+8jibLwYeOXPTxzglbJp/Y8bX9znf/dirCcrlI0K
GgBcZ9M9K0W+CawQIRwdsqKDarPRyrGOFI1fmxP6hutl/actnG3WHn84Vq7YOwIL
WgE++kpEZcMcXaggBXaXnfyAB+s+JfRCqMBzpTpaGT641imuLMLq90GaCqajQsle
2p6NTPTxve7XnPq+jYIHzeFE9Mk/+Wl4qlSx85/CpT9DfuolJaFTeOYqz7HgaPVl
q6txjjIZJPRIEqiOsUehtLAMRFcy8IV5RxPJ+rEJ6MtLyZW2Z1k/2ES++nZVWWJM
RuwUn4ZcXJmRSg4mbCXBJVD5UlenxpfC6+HZLR4iPLfWjcYJtdJy+p35cCZwIvab
ZxlgS07RlA+KjDg6lqDhQ9vISBBRpmbld+bdgCqB87TtkOD9/B8CAwEAAaOBpzCB
pDAdBgNVHQ4EFgQU72ENdpu66Ka5hqWdViMV25zXaYkwdQYDVR0jBG4wbIAU72EN
dpu66Ka5hqWdViMV25zXaYmhSaRHMEUxCzAJBgNVBAYTAkFVMRMwEQYDVQQIEwpT
b21lLVN0YXRlMSEwHwYDVQQKExhJbnRlcm5ldCBXaWRnaXRzIFB0eSBMdGSCCQDZ
kKzcNDmcITAMBgNVHRMEBTADAQH/MA0GCSqGSIb3DQEBBQUAA4ICAQA3d5XPjyNf
yZpS6YwxrJD6HMtvD0AxypZ31YOAsH0KIX6Y/klKPDVfD9PafP+qOEy1YCxZYuW2
mqqRvLRKmeb4uk/nYZsPvPTzgoXZjadZMWIOcGJ7BYER3iEcYxir2QjqqtrkUjzo
ZHkNPAY9otTgc49WaQY5xOBU6zScNj2rHY9khznaJTF3QfZR+woslMP+kCh2Gzbm
TkDEgRY1n/dMw2eh65aWcH87OykL8kZ1JU4iR/XrcawKRLNAwxC2l5KQTTHI3Ymz
kJZCmnAniFTeJTkTvEaSQIZ2wrljcnG5WXcN7G83zG6hOfiRVskzAQLYbzOr63lM
0r8rSDv+zTi9lT5GqmNMLOSoQA4CFNwf9x7UonN+1RcXzxBgdPCxfOhVyvvntvrT
6dcgKakdmeGQEv5sXqA4mTPqiu+qWV7Hx8V2yefmnYh4WFcF//X5oMw1/sRqKb81
tNqTlwrBVj8UY2ePR0QEahU4N+FWEXC2+G3KCn9gGgeU18nML+EIS7VjtRJfdJWI
uAaexvMva29ihkXZ6rDEgALM3LxlrzU30GjfskTCNZ934BkvtWraxMOp8PILyx+F
IP3zsigNE/FBdoG4wvjFM8zX5g98ereT6T1Lve6NgdK/2Zm8ojA8fw8p8Mfq5jiK
eLgNMs/FpdgLnVh5oTh5ZiZwKOAnPUGRYA==
-----END CERTIFICATE-----
